target datalayout = "e-m:e-p270:32:32-p271:32:32-p272:64:64-i64:64-i128:128-f80:128-n8:16:32:64-S128"
target triple = "x86_64-pc-linux-gnu"

%struct.darktable_t = type { %struct.dt_codepath_t, i32, i32, ptr, ptr, ptr, ptr, ptr, ptr, ptr, ptr, ptr, ptr, ptr, ptr, ptr, ptr, ptr, ptr, ptr, ptr, ptr, ptr, ptr, ptr, ptr, ptr, ptr, ptr, ptr, [64 x %struct.dt_pthread_mutex_t], %struct.dt_pthread_mutex_t, %struct.dt_pthread_mutex_t, %struct.dt_pthread_mutex_t, %struct.dt_pthread_mutex_t, %struct.dt_pthread_mutex_t, ptr, ptr, ptr, ptr, ptr, ptr, ptr, ptr, ptr, ptr, ptr, ptr, ptr, %struct.dt_lua_state_t, ptr, double, ptr, i32, [47 x i32], i32, i32, ptr, ptr, %struct.dt_sys_resources_t, %struct.dt_backthumb_t, %struct.dt_gimp_t }
%struct.dt_codepath_t = type { i8, [3 x i8] }
%struct.dt_pthread_mutex_t = type { %union.pthread_mutex_t }
%union.pthread_mutex_t = type { %struct.__pthread_mutex_s }
%struct.__pthread_mutex_s = type { i32, i32, i32, i32, i32, i16, i16, %struct.__pthread_internal_list }
%struct.__pthread_internal_list = type { ptr, ptr }
%struct.dt_lua_state_t = type { i32 }
%struct.dt_sys_resources_t = type { i64, i64, ptr, ptr, i32 }
%struct.dt_backthumb_t = type { double, double, i32, i32, i32, i32 }
%struct.dt_gimp_t = type { i32, ptr, ptr, i32, i32 }

@darktable = external global %struct.darktable_t, align 8
@.str.19 = private unnamed_addr constant [10 x i8] c"PRAGMA %s\00", align 1
@.str.107 = private unnamed_addr constant [5 x i8] c"main\00", align 1
@.str.990 = private unnamed_addr constant [21 x i8] c"[db backup] %s to %s\00", align 1
@.str.991 = private unnamed_addr constant [14 x i8] c"%s.page_count\00", align 1

; Function Attrs: nounwind uwtable
define i32 @_get_pragma_int_val(ptr noundef %0, ptr noundef %1) #0 {
  %3 = alloca ptr, align 8
  %4 = alloca ptr, align 8
  %5 = alloca ptr, align 8
  %6 = alloca i32, align 4
  %7 = alloca ptr, align 8
  %8 = alloca i32, align 4
  store ptr %0, ptr %3, align 8, !tbaa !63
  store ptr %1, ptr %4, align 8, !tbaa !18
  call void @llvm.lifetime.start.p0(i64 8, ptr %5) #13
  %9 = load ptr, ptr %4, align 8, !tbaa !18
  %10 = call noalias ptr (ptr, ...) @g_strdup_printf(ptr noundef @.str.19, ptr noundef %9)
  store ptr %10, ptr %5, align 8, !tbaa !18
  call void @llvm.lifetime.start.p0(i64 4, ptr %6) #13
  store i32 -1, ptr %6, align 4, !tbaa !21
  call void @llvm.lifetime.start.p0(i64 8, ptr %7) #13
  call void @llvm.lifetime.start.p0(i64 4, ptr %8) #13
  %11 = load ptr, ptr %3, align 8, !tbaa !63
  %12 = load ptr, ptr %5, align 8, !tbaa !18
  %13 = call i32 @sqlite3_prepare_v2(ptr noundef %11, ptr noundef %12, i32 noundef -1, ptr noundef %7, ptr noundef null)
  store i32 %13, ptr %8, align 4, !tbaa !21
  %14 = load i32, ptr %8, align 4, !tbaa !21
  %15 = icmp eq i32 %14, 0
  br i1 %15, label %16, label %23

16:                                               ; preds = %2
  %17 = load ptr, ptr %7, align 8, !tbaa !64
  %18 = call i32 @sqlite3_step(ptr noundef %17)
  %19 = icmp eq i32 %18, 100
  br i1 %19, label %20, label %23

20:                                               ; preds = %16
  %21 = load ptr, ptr %7, align 8, !tbaa !64
  %22 = call i32 @sqlite3_column_int(ptr noundef %21, i32 noundef 0)
  store i32 %22, ptr %6, align 4, !tbaa !21
  br label %23

23:                                               ; preds = %20, %16, %2
  %24 = load ptr, ptr %7, align 8, !tbaa !64
  %25 = call i32 @sqlite3_finalize(ptr noundef %24)
  %26 = load ptr, ptr %5, align 8, !tbaa !18
  call void @g_free(ptr noundef %26)
  %27 = load i32, ptr %6, align 4, !tbaa !21
  call void @llvm.lifetime.end.p0(i64 4, ptr %8) #13
  call void @llvm.lifetime.end.p0(i64 8, ptr %7) #13
  call void @llvm.lifetime.end.p0(i64 4, ptr %6) #13
  call void @llvm.lifetime.end.p0(i64 8, ptr %5) #13
  ret i32 %27
}

; Function Attrs: nounwind uwtable
define internal i32 @_backup_db(ptr noundef %0, ptr noundef %1, ptr noundef %2, ptr noundef %3) #0 {
  %5 = alloca ptr, align 8
  %6 = alloca ptr, align 8
  %7 = alloca ptr, align 8
  %8 = alloca ptr, align 8
  %9 = alloca ptr, align 8
  %10 = alloca i32, align 4
  %11 = alloca ptr, align 8
  %12 = alloca ptr, align 8
  %13 = alloca i32, align 4
  %14 = alloca i32, align 4
  store ptr %0, ptr %5, align 8, !tbaa !63
  store ptr %1, ptr %6, align 8, !tbaa !18
  store ptr %2, ptr %7, align 8, !tbaa !18
  store ptr %3, ptr %8, align 8, !tbaa !72
  call void @llvm.lifetime.start.p0(i64 8, ptr %9) #13
  call void @llvm.lifetime.start.p0(i64 4, ptr %10) #13
  %15 = load ptr, ptr %7, align 8, !tbaa !18
  %16 = call i32 @sqlite3_open(ptr noundef %15, ptr noundef %9)
  store i32 %16, ptr %10, align 4, !tbaa !21
  %17 = load i32, ptr %10, align 4, !tbaa !21
  %18 = icmp eq i32 %17, 0
  br i1 %18, label %19, label %114

19:                                               ; preds = %4
  call void @llvm.lifetime.start.p0(i64 8, ptr %11) #13
  %20 = load ptr, ptr %9, align 8, !tbaa !63
  %21 = load ptr, ptr %5, align 8, !tbaa !63
  %22 = load ptr, ptr %6, align 8, !tbaa !18
  %23 = call ptr @sqlite3_backup_init(ptr noundef %20, ptr noundef @.str.107, ptr noundef %21, ptr noundef %22)
  store ptr %23, ptr %11, align 8, !tbaa !84
  %24 = load ptr, ptr %11, align 8, !tbaa !84
  %25 = icmp ne ptr %24, null
  br i1 %25, label %26, label %111

26:                                               ; preds = %19
  br label %27

27:                                               ; preds = %26
  %28 = load i32, ptr getelementptr inbounds nuw (%struct.darktable_t, ptr @darktable, i32 0, i32 2), align 8, !tbaa !27
  %29 = and i32 256, %28
  %30 = icmp ne i32 %29, 0
  br i1 %30, label %31, label %39

31:                                               ; preds = %27
  %32 = load i32, ptr getelementptr inbounds nuw (%struct.darktable_t, ptr @darktable, i32 0, i32 2), align 8, !tbaa !27
  %33 = xor i32 %32, -1
  %34 = and i32 0, %33
  %35 = icmp ne i32 %34, 0
  br i1 %35, label %39, label %36

36:                                               ; preds = %31
  %37 = load ptr, ptr %6, align 8, !tbaa !18
  %38 = load ptr, ptr %7, align 8, !tbaa !18
  call void (ptr, ...) @dt_print_ext(ptr noundef @.str.990, ptr noundef %37, ptr noundef %38)
  br label %39

39:                                               ; preds = %36, %31, %27
  br label %40

40:                                               ; preds = %39
  br label %41

41:                                               ; preds = %40
  call void @llvm.lifetime.start.p0(i64 8, ptr %12) #13
  %42 = load ptr, ptr %6, align 8, !tbaa !18
  %43 = call noalias ptr (ptr, ...) @g_strdup_printf(ptr noundef @.str.991, ptr noundef %42)
  store ptr %43, ptr %12, align 8, !tbaa !18
  call void @llvm.lifetime.start.p0(i64 4, ptr %13) #13
  %44 = load ptr, ptr %5, align 8, !tbaa !63
  %45 = load ptr, ptr %12, align 8, !tbaa !18
  %46 = call i32 @_get_pragma_int_val(ptr noundef %44, ptr noundef %45)
  store i32 %46, ptr %13, align 4, !tbaa !21
  %47 = load ptr, ptr %12, align 8, !tbaa !18
  call void @g_free(ptr noundef %47)
  call void @llvm.lifetime.start.p0(i64 4, ptr %14) #13
  %48 = load i32, ptr %13, align 4, !tbaa !21
  %49 = load i32, ptr %13, align 4, !tbaa !21
  %50 = sdiv i32 %49, 100
  %51 = icmp sgt i32 5, %50
  br i1 %51, label %52, label %53

52:                                               ; preds = %41
  br label %56

53:                                               ; preds = %41
  %54 = load i32, ptr %13, align 4, !tbaa !21
  %55 = sdiv i32 %54, 100
  br label %56

56:                                               ; preds = %53, %52
  %57 = phi i32 [ 5, %52 ], [ %55, %53 ]
  %58 = icmp slt i32 %48, %57
  br i1 %58, label %59, label %61

59:                                               ; preds = %56
  %60 = load i32, ptr %13, align 4, !tbaa !21
  br label %71

61:                                               ; preds = %56
  %62 = load i32, ptr %13, align 4, !tbaa !21
  %63 = sdiv i32 %62, 100
  %64 = icmp sgt i32 5, %63
  br i1 %64, label %65, label %66

65:                                               ; preds = %61
  br label %69

66:                                               ; preds = %61
  %67 = load i32, ptr %13, align 4, !tbaa !21
  %68 = sdiv i32 %67, 100
  br label %69

69:                                               ; preds = %66, %65
  %70 = phi i32 [ 5, %65 ], [ %68, %66 ]
  br label %71

71:                                               ; preds = %69, %59
  %72 = phi i32 [ %60, %59 ], [ %70, %69 ]
  store i32 %72, ptr %14, align 4, !tbaa !21
  br label %73

73:                                               ; preds = %106, %71
  %74 = load ptr, ptr %11, align 8, !tbaa !84
  %75 = load i32, ptr %14, align 4, !tbaa !21
  %76 = call i32 @sqlite3_backup_step(ptr noundef %74, i32 noundef %75)
  store i32 %76, ptr %10, align 4, !tbaa !21
  %77 = load ptr, ptr %8, align 8, !tbaa !72
  %78 = icmp ne ptr %77, null
  br i1 %78, label %79, label %85

79:                                               ; preds = %73
  %80 = load ptr, ptr %8, align 8, !tbaa !72
  %81 = load ptr, ptr %11, align 8, !tbaa !84
  %82 = call i32 @sqlite3_backup_remaining(ptr noundef %81)
  %83 = load ptr, ptr %11, align 8, !tbaa !84
  %84 = call i32 @sqlite3_backup_pagecount(ptr noundef %83)
  call void %80(i32 noundef %82, i32 noundef %84)
  br label %85

85:                                               ; preds = %79, %73
  %86 = load i32, ptr %10, align 4, !tbaa !21
  %87 = icmp eq i32 %86, 0
  br i1 %87, label %94, label %88

88:                                               ; preds = %85
  %89 = load i32, ptr %10, align 4, !tbaa !21
  %90 = icmp eq i32 %89, 5
  br i1 %90, label %94, label %91

91:                                               ; preds = %88
  %92 = load i32, ptr %10, align 4, !tbaa !21
  %93 = icmp eq i32 %92, 6
  br i1 %93, label %94, label %96

94:                                               ; preds = %91, %88, %85
  %95 = call i32 @sqlite3_sleep(i32 noundef 25)
  br label %96

96:                                               ; preds = %94, %91
  br label %97

97:                                               ; preds = %96
  %98 = load i32, ptr %10, align 4, !tbaa !21
  %99 = icmp eq i32 %98, 0
  br i1 %99, label %106, label %100

100:                                              ; preds = %97
  %101 = load i32, ptr %10, align 4, !tbaa !21
  %102 = icmp eq i32 %101, 5
  br i1 %102, label %106, label %103

103:                                              ; preds = %100
  %104 = load i32, ptr %10, align 4, !tbaa !21
  %105 = icmp eq i32 %104, 6
  br label %106

106:                                              ; preds = %103, %100, %97
  %107 = phi i1 [ true, %100 ], [ true, %97 ], [ %105, %103 ]
  br i1 %107, label %73, label %108

108:                                              ; preds = %106
  %109 = load ptr, ptr %11, align 8, !tbaa !84
  %110 = call i32 @sqlite3_backup_finish(ptr noundef %109)
  call void @llvm.lifetime.end.p0(i64 4, ptr %14) #13
  call void @llvm.lifetime.end.p0(i64 4, ptr %13) #13
  call void @llvm.lifetime.end.p0(i64 8, ptr %12) #13
  br label %111

111:                                              ; preds = %108, %19
  %112 = load ptr, ptr %9, align 8, !tbaa !63
  %113 = call i32 @sqlite3_errcode(ptr noundef %112)
  store i32 %113, ptr %10, align 4, !tbaa !21
  call void @llvm.lifetime.end.p0(i64 8, ptr %11) #13
  br label %114

114:                                              ; preds = %111, %4
  %115 = load ptr, ptr %9, align 8, !tbaa !63
  %116 = call i32 @sqlite3_close(ptr noundef %115)
  %117 = load i32, ptr %10, align 4, !tbaa !21
  call void @llvm.lifetime.end.p0(i64 4, ptr %10) #13
  call void @llvm.lifetime.end.p0(i64 8, ptr %9) #13
  ret i32 %117
}