; Function Attrs: nounwind uwtable
define internal fastcc i32 @_backup_db(ptr noundef %0, ptr noundef %1, ptr noundef %2) unnamed_addr #0 {
  %4 = alloca ptr, align 8
  %5 = alloca ptr, align 8
  call void @llvm.lifetime.start.p0(i64 8, ptr nonnull %5) #18
  %6 = call i32 @sqlite3_open(ptr noundef %2, ptr noundef nonnull %5) #18
  %7 = icmp eq i32 %6, 0
  br i1 %7, label %8, label %47

8:                                                ; preds = %3
  %9 = load ptr, ptr %5, align 8, !tbaa !74
  %10 = call ptr @sqlite3_backup_init(ptr noundef %9, ptr noundef nonnull @.str.107, ptr noundef %0, ptr noundef %1) #18
  %.not = icmp eq ptr %10, null
  br i1 %.not, label %44, label %11

11:                                               ; preds = %8
  %12 = load i32, ptr getelementptr inbounds nuw (i8, ptr @darktable, i64 8), align 8, !tbaa !25
  %13 = and i32 %12, 256
  %.not42 = icmp eq i32 %13, 0
  br i1 %.not42, label %15, label %14

14:                                               ; preds = %11
  call void (ptr, ...) @dt_print_ext(ptr noundef nonnull @.str.990, ptr noundef %1, ptr noundef %2) #18
  br label %15

15:                                               ; preds = %14, %11
  %16 = call noalias ptr (ptr, ...) @g_strdup_printf(ptr noundef nonnull @.str.991, ptr noundef %1) #18
  %17 = call noalias ptr (ptr, ...) @g_strdup_printf(ptr noundef nonnull @.str.19, ptr noundef %16) #18
  call void @llvm.lifetime.start.p0(i64 8, ptr nonnull %4) #18
  %18 = call i32 @sqlite3_prepare_v2(ptr noundef %0, ptr noundef %17, i32 noundef -1, ptr noundef nonnull %4, ptr noundef null) #18
  %19 = icmp eq i32 %18, 0
  br i1 %19, label %20, label %_get_pragma_int_val.exit

20:                                               ; preds = %15
  %21 = load ptr, ptr %4, align 8, !tbaa !21
  %22 = call i32 @sqlite3_step(ptr noundef %21) #18
  %23 = icmp eq i32 %22, 100
  br i1 %23, label %24, label %_get_pragma_int_val.exit

24:                                               ; preds = %20
  %25 = load ptr, ptr %4, align 8, !tbaa !21
  %26 = call i32 @sqlite3_column_int(ptr noundef %25, i32 noundef 0) #18
  %27 = freeze i32 %26
  br label %_get_pragma_int_val.exit

_get_pragma_int_val.exit:                         ; preds = %15, %20, %24
  %.0.i = phi i32 [ %27, %24 ], [ -1, %20 ], [ -1, %15 ]
  %28 = load ptr, ptr %4, align 8, !tbaa !21
  %29 = call i32 @sqlite3_finalize(ptr noundef %28) #18
  call void @g_free(ptr noundef %17) #18
  call void @llvm.lifetime.end.p0(i64 8, ptr nonnull %4) #18
  call void @g_free(ptr noundef %16) #18
  %30 = udiv i32 %.0.i, 100
  %31 = icmp slt i32 %.0.i, 500
  %spec.select = select i1 %31, i32 5, i32 %30
  %32 = call i32 @llvm.smin.i32(i32 %.0.i, i32 %spec.select)
  br label %.critedge

.critedge:                                        ; preds = %.critedge.backedge, %_get_pragma_int_val.exit
  %33 = call i32 @sqlite3_backup_step(ptr noundef nonnull %10, i32 noundef %32) #18
  %34 = call i32 @sqlite3_backup_remaining(ptr noundef nonnull %10) #18
  %35 = call i32 @sqlite3_backup_pagecount(ptr noundef nonnull %10) #18
  %36 = load i32, ptr getelementptr inbounds nuw (i8, ptr @darktable, i64 8), align 8, !tbaa !25
  %37 = and i32 %36, 256
  %.not.i = icmp eq i32 %37, 0
  br i1 %.not.i, label %_print_backup_progress.exit, label %38

38:                                               ; preds = %.critedge
  %39 = sub nsw i32 %35, %34
  call void (ptr, ...) @dt_print_ext(ptr noundef nonnull @.str.992, i32 noundef %39, i32 noundef %35) #18
  br label %_print_backup_progress.exit

_print_backup_progress.exit:                      ; preds = %.critedge, %38
  switch i32 %33, label %42 [
    i32 6, label %40
    i32 5, label %40
    i32 0, label %40
  ]

40:                                               ; preds = %_print_backup_progress.exit, %_print_backup_progress.exit, %_print_backup_progress.exit
  %41 = call i32 @sqlite3_sleep(i32 noundef 25) #18
  switch i32 %33, label %42 [
    i32 6, label %.critedge.backedge
    i32 5, label %.critedge.backedge
    i32 0, label %.critedge.backedge
  ]

.critedge.backedge:                               ; preds = %40, %40, %40
  br label %.critedge

42:                                               ; preds = %_print_backup_progress.exit, %40
  %43 = call i32 @sqlite3_backup_finish(ptr noundef nonnull %10) #18
  br label %44

44:                                               ; preds = %42, %8
  %45 = load ptr, ptr %5, align 8, !tbaa !74
  %46 = call i32 @sqlite3_errcode(ptr noundef %45) #18
  br label %47

47:                                               ; preds = %44, %3
  %.0 = phi i32 [ %46, %44 ], [ %6, %3 ]
  %48 = load ptr, ptr %5, align 8, !tbaa !74
  %49 = call i32 @sqlite3_close(ptr noundef %48) #18
  call void @llvm.lifetime.end.p0(i64 8, ptr nonnull %5) #18
  ret i32 %.0
}